target datalayout = "e-m:e-p270:32:32-p271:32:32-p272:64:64-i64:64-i128:128-f80:128-n8:16:32:64-S128"
target triple = "x86_64-pc-linux-gnu"

%"struct.duckdb_brotli::BrotliPrefixCodeRange" = type { i16, i8 }
%struct.BlockEncoder = type { i64, i64, ptr, ptr, i64, %struct.BlockSplitCode, i64, i64, i64, ptr, ptr }
%struct.BlockSplitCode = type { %struct.BlockTypeCodeCalculator, [258 x i8], [258 x i16], [26 x i8], [26 x i16] }
%struct.BlockTypeCodeCalculator = type { i64, i64 }

@_ZN13duckdb_brotli24_kBrotliPrefixCodeRangesE = external global [26 x %"struct.duckdb_brotli::BrotliPrefixCodeRange"], align 16

; Function Attrs: alwaysinline mustprogress nounwind uwtable
define internal noundef i32 @_ZL21BlockLengthPrefixCodej(i32 noundef %0) #6 {
  %2 = alloca i32, align 4
  %3 = alloca i32, align 4
  store i32 %0, ptr %2, align 4, !tbaa !14
  call void @llvm.lifetime.start.p0(i64 4, ptr %3) #10
  %4 = load i32, ptr %2, align 4, !tbaa !14
  %5 = icmp uge i32 %4, 177
  br i1 %5, label %6, label %10

6:                                                ; preds = %1
  %7 = load i32, ptr %2, align 4, !tbaa !14
  %8 = icmp uge i32 %7, 753
  %9 = select i1 %8, i32 20, i32 14
  br label %14

10:                                               ; preds = %1
  %11 = load i32, ptr %2, align 4, !tbaa !14
  %12 = icmp uge i32 %11, 41
  %13 = select i1 %12, i32 7, i32 0
  br label %14

14:                                               ; preds = %10, %6
  %15 = phi i32 [ %9, %6 ], [ %13, %10 ]
  store i32 %15, ptr %3, align 4, !tbaa !14
  br label %16

16:                                               ; preds = %31, %14
  %17 = load i32, ptr %3, align 4, !tbaa !14
  %18 = icmp ult i32 %17, 25
  br i1 %18, label %19, label %29

19:                                               ; preds = %16
  %20 = load i32, ptr %2, align 4, !tbaa !14
  %21 = load i32, ptr %3, align 4, !tbaa !14
  %22 = add i32 %21, 1
  %23 = zext i32 %22 to i64
  %24 = getelementptr inbounds nuw [26 x %"struct.duckdb_brotli::BrotliPrefixCodeRange"], ptr @_ZN13duckdb_brotli24_kBrotliPrefixCodeRangesE, i64 0, i64 %23
  %25 = getelementptr inbounds nuw %"struct.duckdb_brotli::BrotliPrefixCodeRange", ptr %24, i32 0, i32 0
  %26 = load i16, ptr %25, align 4, !tbaa !178
  %27 = zext i16 %26 to i32
  %28 = icmp uge i32 %20, %27
  br label %29

29:                                               ; preds = %19, %16
  %30 = phi i1 [ false, %16 ], [ %28, %19 ]
  br i1 %30, label %31, label %34

31:                                               ; preds = %29
  %32 = load i32, ptr %3, align 4, !tbaa !14
  %33 = add i32 %32, 1
  store i32 %33, ptr %3, align 4, !tbaa !14
  br label %16, !llvm.loop !180

34:                                               ; preds = %29
  %35 = load i32, ptr %3, align 4, !tbaa !14
  call void @llvm.lifetime.end.p0(i64 4, ptr %3) #10
  ret i32 %35
}

; Function Attrs: alwaysinline mustprogress nounwind uwtable
define internal void @_ZL22BrotliUnalignedWrite64Pvm(ptr noundef %0, i64 noundef %1) #6 {
  %3 = alloca ptr, align 8
  %4 = alloca i64, align 8
  store ptr %0, ptr %3, align 8, !tbaa !43
  store i64 %1, ptr %4, align 8, !tbaa !8
  %5 = load ptr, ptr %3, align 8, !tbaa !43
  call void @llvm.memcpy.p0.p0.i64(ptr align 1 %5, ptr align 8 %4, i64 8, i1 false)
  ret void
}

; Function Attrs: alwaysinline mustprogress nounwind uwtable
define internal void @_ZL24GetBlockLengthPrefixCodejPmPjS0_(i32 noundef %0, ptr noundef %1, ptr noundef %2, ptr noundef %3) #6 {
  %5 = alloca i32, align 4
  %6 = alloca ptr, align 8
  %7 = alloca ptr, align 8
  %8 = alloca ptr, align 8
  store i32 %0, ptr %5, align 4, !tbaa !14
  store ptr %1, ptr %6, align 8, !tbaa !12
  store ptr %2, ptr %7, align 8, !tbaa !27
  store ptr %3, ptr %8, align 8, !tbaa !27
  %9 = load i32, ptr %5, align 4, !tbaa !14
  %10 = call noundef i32 @_ZL21BlockLengthPrefixCodej(i32 noundef %9)
  %11 = zext i32 %10 to i64
  %12 = load ptr, ptr %6, align 8, !tbaa !12
  store i64 %11, ptr %12, align 8, !tbaa !8
  %13 = load ptr, ptr %6, align 8, !tbaa !12
  %14 = load i64, ptr %13, align 8, !tbaa !8
  %15 = getelementptr inbounds nuw [26 x %"struct.duckdb_brotli::BrotliPrefixCodeRange"], ptr @_ZN13duckdb_brotli24_kBrotliPrefixCodeRangesE, i64 0, i64 %14
  %16 = getelementptr inbounds nuw %"struct.duckdb_brotli::BrotliPrefixCodeRange", ptr %15, i32 0, i32 1
  %17 = load i8, ptr %16, align 2, !tbaa !181
  %18 = zext i8 %17 to i32
  %19 = load ptr, ptr %7, align 8, !tbaa !27
  store i32 %18, ptr %19, align 4, !tbaa !14
  %20 = load i32, ptr %5, align 4, !tbaa !14
  %21 = load ptr, ptr %6, align 8, !tbaa !12
  %22 = load i64, ptr %21, align 8, !tbaa !8
  %23 = getelementptr inbounds nuw [26 x %"struct.duckdb_brotli::BrotliPrefixCodeRange"], ptr @_ZN13duckdb_brotli24_kBrotliPrefixCodeRangesE, i64 0, i64 %22
  %24 = getelementptr inbounds nuw %"struct.duckdb_brotli::BrotliPrefixCodeRange", ptr %23, i32 0, i32 0
  %25 = load i16, ptr %24, align 4, !tbaa !178
  %26 = zext i16 %25 to i32
  %27 = sub i32 %20, %26
  %28 = load ptr, ptr %8, align 8, !tbaa !27
  store i32 %27, ptr %28, align 4, !tbaa !14
  ret void
}

; Function Attrs: alwaysinline mustprogress nounwind uwtable
define internal noundef i64 @_ZL17NextBlockTypeCodeP23BlockTypeCodeCalculatorh(ptr noundef %0, i8 noundef zeroext %1) #6 {
  %3 = alloca ptr, align 8
  %4 = alloca i8, align 1
  %5 = alloca i64, align 8
  store ptr %0, ptr %3, align 8, !tbaa !171
  store i8 %1, ptr %4, align 1, !tbaa !16
  call void @llvm.lifetime.start.p0(i64 8, ptr %5) #10
  %6 = load i8, ptr %4, align 1, !tbaa !16
  %7 = zext i8 %6 to i64
  %8 = load ptr, ptr %3, align 8, !tbaa !171
  %9 = getelementptr inbounds nuw %struct.BlockTypeCodeCalculator, ptr %8, i32 0, i32 0
  %10 = load i64, ptr %9, align 8, !tbaa !173
  %11 = add i64 %10, 1
  %12 = icmp eq i64 %7, %11
  br i1 %12, label %13, label %14

13:                                               ; preds = %2
  br label %28

14:                                               ; preds = %2
  %15 = load i8, ptr %4, align 1, !tbaa !16
  %16 = zext i8 %15 to i64
  %17 = load ptr, ptr %3, align 8, !tbaa !171
  %18 = getelementptr inbounds nuw %struct.BlockTypeCodeCalculator, ptr %17, i32 0, i32 1
  %19 = load i64, ptr %18, align 8, !tbaa !174
  %20 = icmp eq i64 %16, %19
  br i1 %20, label %21, label %22

21:                                               ; preds = %14
  br label %26

22:                                               ; preds = %14
  %23 = load i8, ptr %4, align 1, !tbaa !16
  %24 = zext i8 %23 to i32
  %25 = add i32 %24, 2
  br label %26

26:                                               ; preds = %22, %21
  %27 = phi i32 [ 0, %21 ], [ %25, %22 ]
  br label %28

28:                                               ; preds = %26, %13
  %29 = phi i32 [ 1, %13 ], [ %27, %26 ]
  %30 = zext i32 %29 to i64
  store i64 %30, ptr %5, align 8, !tbaa !8
  %31 = load ptr, ptr %3, align 8, !tbaa !171
  %32 = getelementptr inbounds nuw %struct.BlockTypeCodeCalculator, ptr %31, i32 0, i32 0
  %33 = load i64, ptr %32, align 8, !tbaa !173
  %34 = load ptr, ptr %3, align 8, !tbaa !171
  %35 = getelementptr inbounds nuw %struct.BlockTypeCodeCalculator, ptr %34, i32 0, i32 1
  store i64 %33, ptr %35, align 8, !tbaa !174
  %36 = load i8, ptr %4, align 1, !tbaa !16
  %37 = zext i8 %36 to i64
  %38 = load ptr, ptr %3, align 8, !tbaa !171
  %39 = getelementptr inbounds nuw %struct.BlockTypeCodeCalculator, ptr %38, i32 0, i32 0
  store i64 %37, ptr %39, align 8, !tbaa !173
  %40 = load i64, ptr %5, align 8, !tbaa !8
  call void @llvm.lifetime.end.p0(i64 8, ptr %5) #10
  ret i64 %40
}

; Function Attrs: alwaysinline mustprogress uwtable
define internal void @_ZN13duckdb_brotliL15BrotliWriteBitsEmmPmPh(i64 noundef %0, i64 noundef %1, ptr noalias noundef %2, ptr noalias noundef %3) #4 {
  %5 = alloca i64, align 8
  %6 = alloca i64, align 8
  %7 = alloca ptr, align 8
  %8 = alloca ptr, align 8
  %9 = alloca ptr, align 8
  %10 = alloca i64, align 8
  store i64 %0, ptr %5, align 8, !tbaa !8
  store i64 %1, ptr %6, align 8, !tbaa !8
  store ptr %2, ptr %7, align 8, !tbaa !12
  store ptr %3, ptr %8, align 8, !tbaa !3
  call void @llvm.lifetime.start.p0(i64 8, ptr %9) #10
  %11 = load ptr, ptr %8, align 8, !tbaa !3
  %12 = load ptr, ptr %7, align 8, !tbaa !12
  %13 = load i64, ptr %12, align 8, !tbaa !8
  %14 = lshr i64 %13, 3
  %15 = getelementptr inbounds nuw i8, ptr %11, i64 %14
  store ptr %15, ptr %9, align 8, !tbaa !3
  call void @llvm.lifetime.start.p0(i64 8, ptr %10) #10
  %16 = load ptr, ptr %9, align 8, !tbaa !3
  %17 = load i8, ptr %16, align 1, !tbaa !16
  %18 = zext i8 %17 to i64
  store i64 %18, ptr %10, align 8, !tbaa !8
  %19 = load i64, ptr %6, align 8, !tbaa !8
  %20 = load ptr, ptr %7, align 8, !tbaa !12
  %21 = load i64, ptr %20, align 8, !tbaa !8
  %22 = and i64 %21, 7
  %23 = shl i64 %19, %22
  %24 = load i64, ptr %10, align 8, !tbaa !8
  %25 = or i64 %24, %23
  store i64 %25, ptr %10, align 8, !tbaa !8
  %26 = load ptr, ptr %9, align 8, !tbaa !3
  %27 = load i64, ptr %10, align 8, !tbaa !8
  call void @_ZL22BrotliUnalignedWrite64Pvm(ptr noundef %26, i64 noundef %27)
  %28 = load i64, ptr %5, align 8, !tbaa !8
  %29 = load ptr, ptr %7, align 8, !tbaa !12
  %30 = load i64, ptr %29, align 8, !tbaa !8
  %31 = add i64 %30, %28
  store i64 %31, ptr %29, align 8, !tbaa !8
  call void @llvm.lifetime.end.p0(i64 8, ptr %10) #10
  call void @llvm.lifetime.end.p0(i64 8, ptr %9) #10
  ret void
}

; Function Attrs: alwaysinline mustprogress uwtable
define internal void @_ZL16StoreBlockSwitchP14BlockSplitCodejhiPmPh(ptr noundef %0, i32 noundef %1, i8 noundef zeroext %2, i32 noundef %3, ptr noundef %4, ptr noundef %5) #4 {
  %7 = alloca ptr, align 8
  %8 = alloca i32, align 4
  %9 = alloca i8, align 1
  %10 = alloca i32, align 4
  %11 = alloca ptr, align 8
  %12 = alloca ptr, align 8
  %13 = alloca i64, align 8
  %14 = alloca i64, align 8
  %15 = alloca i32, align 4
  %16 = alloca i32, align 4
  store ptr %0, ptr %7, align 8, !tbaa !175
  store i32 %1, ptr %8, align 4, !tbaa !14
  store i8 %2, ptr %9, align 1, !tbaa !16
  store i32 %3, ptr %10, align 4, !tbaa !14
  store ptr %4, ptr %11, align 8, !tbaa !12
  store ptr %5, ptr %12, align 8, !tbaa !3
  call void @llvm.lifetime.start.p0(i64 8, ptr %13) #10
  %17 = load ptr, ptr %7, align 8, !tbaa !175
  %18 = getelementptr inbounds nuw %struct.BlockSplitCode, ptr %17, i32 0, i32 0
  %19 = load i8, ptr %9, align 1, !tbaa !16
  %20 = call noundef i64 @_ZL17NextBlockTypeCodeP23BlockTypeCodeCalculatorh(ptr noundef %18, i8 noundef zeroext %19)
  store i64 %20, ptr %13, align 8, !tbaa !8
  call void @llvm.lifetime.start.p0(i64 8, ptr %14) #10
  call void @llvm.lifetime.start.p0(i64 4, ptr %15) #10
  call void @llvm.lifetime.start.p0(i64 4, ptr %16) #10
  %21 = load i32, ptr %10, align 4, !tbaa !14
  %22 = icmp ne i32 %21, 0
  br i1 %22, label %38, label %23

23:                                               ; preds = %6
  %24 = load ptr, ptr %7, align 8, !tbaa !175
  %25 = getelementptr inbounds nuw %struct.BlockSplitCode, ptr %24, i32 0, i32 1
  %26 = load i64, ptr %13, align 8, !tbaa !8
  %27 = getelementptr inbounds nuw [258 x i8], ptr %25, i64 0, i64 %26
  %28 = load i8, ptr %27, align 1, !tbaa !16
  %29 = zext i8 %28 to i64
  %30 = load ptr, ptr %7, align 8, !tbaa !175
  %31 = getelementptr inbounds nuw %struct.BlockSplitCode, ptr %30, i32 0, i32 2
  %32 = load i64, ptr %13, align 8, !tbaa !8
  %33 = getelementptr inbounds nuw [258 x i16], ptr %31, i64 0, i64 %32
  %34 = load i16, ptr %33, align 2, !tbaa !24
  %35 = zext i16 %34 to i64
  %36 = load ptr, ptr %11, align 8, !tbaa !12
  %37 = load ptr, ptr %12, align 8, !tbaa !3
  call void @_ZN13duckdb_brotliL15BrotliWriteBitsEmmPmPh(i64 noundef %29, i64 noundef %35, ptr noundef %36, ptr noundef %37)
  br label %38

38:                                               ; preds = %23, %6
  %39 = load i32, ptr %8, align 4, !tbaa !14
  call void @_ZL24GetBlockLengthPrefixCodejPmPjS0_(i32 noundef %39, ptr noundef %14, ptr noundef %15, ptr noundef %16)
  %40 = load ptr, ptr %7, align 8, !tbaa !175
  %41 = getelementptr inbounds nuw %struct.BlockSplitCode, ptr %40, i32 0, i32 3
  %42 = load i64, ptr %14, align 8, !tbaa !8
  %43 = getelementptr inbounds nuw [26 x i8], ptr %41, i64 0, i64 %42
  %44 = load i8, ptr %43, align 1, !tbaa !16
  %45 = zext i8 %44 to i64
  %46 = load ptr, ptr %7, align 8, !tbaa !175
  %47 = getelementptr inbounds nuw %struct.BlockSplitCode, ptr %46, i32 0, i32 4
  %48 = load i64, ptr %14, align 8, !tbaa !8
  %49 = getelementptr inbounds nuw [26 x i16], ptr %47, i64 0, i64 %48
  %50 = load i16, ptr %49, align 2, !tbaa !24
  %51 = zext i16 %50 to i64
  %52 = load ptr, ptr %11, align 8, !tbaa !12
  %53 = load ptr, ptr %12, align 8, !tbaa !3
  call void @_ZN13duckdb_brotliL15BrotliWriteBitsEmmPmPh(i64 noundef %45, i64 noundef %51, ptr noundef %52, ptr noundef %53)
  %54 = load i32, ptr %15, align 4, !tbaa !14
  %55 = zext i32 %54 to i64
  %56 = load i32, ptr %16, align 4, !tbaa !14
  %57 = zext i32 %56 to i64
  %58 = load ptr, ptr %11, align 8, !tbaa !12
  %59 = load ptr, ptr %12, align 8, !tbaa !3
  call void @_ZN13duckdb_brotliL15BrotliWriteBitsEmmPmPh(i64 noundef %55, i64 noundef %57, ptr noundef %58, ptr noundef %59)
  call void @llvm.lifetime.end.p0(i64 4, ptr %16) #10
  call void @llvm.lifetime.end.p0(i64 4, ptr %15) #10
  call void @llvm.lifetime.end.p0(i64 8, ptr %14) #10
  call void @llvm.lifetime.end.p0(i64 8, ptr %13) #10
  ret void
}

; Function Attrs: mustprogress uwtable
define internal void @_ZL11StoreSymbolP12BlockEncodermPmPh(ptr noundef %0, i64 noundef %1, ptr noundef %2, ptr noundef %3) #0 {
  %5 = alloca ptr, align 8
  %6 = alloca i64, align 8
  %7 = alloca ptr, align 8
  %8 = alloca ptr, align 8
  %9 = alloca i64, align 8
  %10 = alloca i32, align 4
  %11 = alloca i8, align 1
  %12 = alloca i64, align 8
  store ptr %0, ptr %5, align 8, !tbaa !78
  store i64 %1, ptr %6, align 8, !tbaa !8
  store ptr %2, ptr %7, align 8, !tbaa !12
  store ptr %3, ptr %8, align 8, !tbaa !3
  %13 = load ptr, ptr %5, align 8, !tbaa !78
  %14 = getelementptr inbounds nuw %struct.BlockEncoder, ptr %13, i32 0, i32 7
  %15 = load i64, ptr %14, align 8, !tbaa !130
  %16 = icmp eq i64 %15, 0
  br i1 %16, label %17, label %52

17:                                               ; preds = %4
  call void @llvm.lifetime.start.p0(i64 8, ptr %9) #10
  %18 = load ptr, ptr %5, align 8, !tbaa !78
  %19 = getelementptr inbounds nuw %struct.BlockEncoder, ptr %18, i32 0, i32 6
  %20 = load i64, ptr %19, align 8, !tbaa !129
  %21 = add i64 %20, 1
  store i64 %21, ptr %19, align 8, !tbaa !129
  store i64 %21, ptr %9, align 8, !tbaa !8
  call void @llvm.lifetime.start.p0(i64 4, ptr %10) #10
  %22 = load ptr, ptr %5, align 8, !tbaa !78
  %23 = getelementptr inbounds nuw %struct.BlockEncoder, ptr %22, i32 0, i32 3
  %24 = load ptr, ptr %23, align 8, !tbaa !127
  %25 = load i64, ptr %9, align 8, !tbaa !8
  %26 = getelementptr inbounds nuw i32, ptr %24, i64 %25
  %27 = load i32, ptr %26, align 4, !tbaa !14
  store i32 %27, ptr %10, align 4, !tbaa !14
  call void @llvm.lifetime.start.p0(i64 1, ptr %11) #10
  %28 = load ptr, ptr %5, align 8, !tbaa !78
  %29 = getelementptr inbounds nuw %struct.BlockEncoder, ptr %28, i32 0, i32 2
  %30 = load ptr, ptr %29, align 8, !tbaa !126
  %31 = load i64, ptr %9, align 8, !tbaa !8
  %32 = getelementptr inbounds nuw i8, ptr %30, i64 %31
  %33 = load i8, ptr %32, align 1, !tbaa !16
  store i8 %33, ptr %11, align 1, !tbaa !16
  %34 = load i32, ptr %10, align 4, !tbaa !14
  %35 = zext i32 %34 to i64
  %36 = load ptr, ptr %5, align 8, !tbaa !78
  %37 = getelementptr inbounds nuw %struct.BlockEncoder, ptr %36, i32 0, i32 7
  store i64 %35, ptr %37, align 8, !tbaa !130
  %38 = load i8, ptr %11, align 1, !tbaa !16
  %39 = zext i8 %38 to i64
  %40 = load ptr, ptr %5, align 8, !tbaa !78
  %41 = getelementptr inbounds nuw %struct.BlockEncoder, ptr %40, i32 0, i32 0
  %42 = load i64, ptr %41, align 8, !tbaa !121
  %43 = mul i64 %39, %42
  %44 = load ptr, ptr %5, align 8, !tbaa !78
  %45 = getelementptr inbounds nuw %struct.BlockEncoder, ptr %44, i32 0, i32 8
  store i64 %43, ptr %45, align 8, !tbaa !131
  %46 = load ptr, ptr %5, align 8, !tbaa !78
  %47 = getelementptr inbounds nuw %struct.BlockEncoder, ptr %46, i32 0, i32 5
  %48 = load i32, ptr %10, align 4, !tbaa !14
  %49 = load i8, ptr %11, align 1, !tbaa !16
  %50 = load ptr, ptr %7, align 8, !tbaa !12
  %51 = load ptr, ptr %8, align 8, !tbaa !3
  call void @_ZL16StoreBlockSwitchP14BlockSplitCodejhiPmPh(ptr noundef %47, i32 noundef %48, i8 noundef zeroext %49, i32 noundef 0, ptr noundef %50, ptr noundef %51)
  call void @llvm.lifetime.end.p0(i64 1, ptr %11) #10
  call void @llvm.lifetime.end.p0(i64 4, ptr %10) #10
  call void @llvm.lifetime.end.p0(i64 8, ptr %9) #10
  br label %52

52:                                               ; preds = %17, %4
  %53 = load ptr, ptr %5, align 8, !tbaa !78
  %54 = getelementptr inbounds nuw %struct.BlockEncoder, ptr %53, i32 0, i32 7
  %55 = load i64, ptr %54, align 8, !tbaa !130
  %56 = add i64 %55, -1
  store i64 %56, ptr %54, align 8, !tbaa !130
  call void @llvm.lifetime.start.p0(i64 8, ptr %12) #10
  %57 = load ptr, ptr %5, align 8, !tbaa !78
  %58 = getelementptr inbounds nuw %struct.BlockEncoder, ptr %57, i32 0, i32 8
  %59 = load i64, ptr %58, align 8, !tbaa !131
  %60 = load i64, ptr %6, align 8, !tbaa !8
  %61 = add i64 %59, %60
  store i64 %61, ptr %12, align 8, !tbaa !8
  %62 = load ptr, ptr %5, align 8, !tbaa !78
  %63 = getelementptr inbounds nuw %struct.BlockEncoder, ptr %62, i32 0, i32 9
  %64 = load ptr, ptr %63, align 8, !tbaa !132
  %65 = load i64, ptr %12, align 8, !tbaa !8
  %66 = getelementptr inbounds nuw i8, ptr %64, i64 %65
  %67 = load i8, ptr %66, align 1, !tbaa !16
  %68 = zext i8 %67 to i64
  %69 = load ptr, ptr %5, align 8, !tbaa !78
  %70 = getelementptr inbounds nuw %struct.BlockEncoder, ptr %69, i32 0, i32 10
  %71 = load ptr, ptr %70, align 8, !tbaa !133
  %72 = load i64, ptr %12, align 8, !tbaa !8
  %73 = getelementptr inbounds nuw i16, ptr %71, i64 %72
  %74 = load i16, ptr %73, align 2, !tbaa !24
  %75 = zext i16 %74 to i64
  %76 = load ptr, ptr %7, align 8, !tbaa !12
  %77 = load ptr, ptr %8, align 8, !tbaa !3
  call void @_ZN13duckdb_brotliL15BrotliWriteBitsEmmPmPh(i64 noundef %68, i64 noundef %75, ptr noundef %76, ptr noundef %77)
  call void @llvm.lifetime.end.p0(i64 8, ptr %12) #10
  ret void
}