; Function Attrs: mustprogress nofree norecurse nosync nounwind memory(read, argmem: readwrite, inaccessiblemem: readwrite) uwtable
define internal fastcc void @_ZL11StoreSymbolP12BlockEncodermPmPh(ptr noundef captures(none) %0, i64 noundef range(i64 0, 65536) %1, ptr noundef captures(none) %2, ptr noundef captures(none) %3) unnamed_addr #6 {
  %5 = getelementptr inbounds nuw i8, ptr %0, i64 920
  %6 = load i64, ptr %5, align 8, !tbaa !194
  %7 = icmp eq i64 %6, 0
  br i1 %7, label %8, label %98

8:                                                ; preds = %4
  %9 = getelementptr inbounds nuw i8, ptr %0, i64 912
  %10 = load i64, ptr %9, align 8, !tbaa !193
  %11 = add i64 %10, 1
  store i64 %11, ptr %9, align 8, !tbaa !193
  %12 = getelementptr inbounds nuw i8, ptr %0, i64 24
  %13 = load ptr, ptr %12, align 8, !tbaa !189
  %14 = getelementptr inbounds nuw i32, ptr %13, i64 %11
  %15 = load i32, ptr %14, align 4, !tbaa !8
  %16 = getelementptr inbounds nuw i8, ptr %0, i64 16
  %17 = load ptr, ptr %16, align 8, !tbaa !188
  %18 = getelementptr inbounds nuw i8, ptr %17, i64 %11
  %19 = load i8, ptr %18, align 1, !tbaa !7
  %20 = zext i32 %15 to i64
  store i64 %20, ptr %5, align 8, !tbaa !194
  %21 = zext i8 %19 to i64
  %22 = load i64, ptr %0, align 8, !tbaa !183
  %23 = mul i64 %22, %21
  %24 = getelementptr inbounds nuw i8, ptr %0, i64 928
  store i64 %23, ptr %24, align 8, !tbaa !241
  %25 = getelementptr inbounds nuw i8, ptr %0, i64 40
  %26 = load i64, ptr %25, align 8, !tbaa !191
  %27 = add i64 %26, 1
  %28 = icmp eq i64 %27, %21
  br i1 %28, label %_ZL16StoreBlockSwitchP14BlockSplitCodejhiPmPh.exit, label %29

29:                                               ; preds = %8
  %30 = getelementptr inbounds nuw i8, ptr %0, i64 48
  %31 = load i64, ptr %30, align 8, !tbaa !192
  %32 = icmp eq i64 %31, %21
  %33 = add nuw nsw i64 %21, 2
  %34 = select i1 %32, i64 0, i64 %33
  br label %_ZL16StoreBlockSwitchP14BlockSplitCodejhiPmPh.exit

_ZL16StoreBlockSwitchP14BlockSplitCodejhiPmPh.exit: ; preds = %8, %29
  %35 = phi i64 [ %34, %29 ], [ 1, %8 ]
  %36 = getelementptr inbounds nuw i8, ptr %0, i64 48
  store i64 %26, ptr %36, align 8, !tbaa !192
  store i64 %21, ptr %25, align 8, !tbaa !191
  %37 = getelementptr inbounds nuw i8, ptr %0, i64 56
  %38 = getelementptr inbounds nuw [258 x i8], ptr %37, i64 0, i64 %35
  %39 = load i8, ptr %38, align 1, !tbaa !7
  %40 = zext i8 %39 to i64
  %41 = getelementptr inbounds nuw i8, ptr %0, i64 314
  %42 = getelementptr inbounds nuw [258 x i16], ptr %41, i64 0, i64 %35
  %43 = load i16, ptr %42, align 2, !tbaa !30
  %44 = zext i16 %43 to i64
  tail call void @llvm.experimental.noalias.scope.decl(metadata !497)
  tail call void @llvm.experimental.noalias.scope.decl(metadata !500)
  %45 = load i64, ptr %2, align 8, !tbaa !3, !alias.scope !497, !noalias !500
  %46 = lshr i64 %45, 3
  %47 = getelementptr inbounds nuw i8, ptr %3, i64 %46
  %48 = load i8, ptr %47, align 1, !tbaa !7, !alias.scope !500, !noalias !497
  %49 = zext i8 %48 to i64
  %50 = and i64 %45, 7
  %51 = shl nuw nsw i64 %44, %50
  %52 = or i64 %51, %49
  store i64 %52, ptr %47, align 1, !noalias !497
  %53 = add i64 %45, %40
  store i64 %53, ptr %2, align 8, !tbaa !3, !alias.scope !497, !noalias !500
  %54 = icmp ugt i32 %15, 176
  %55 = icmp ugt i32 %15, 752
  %56 = select i1 %55, i64 20, i64 14
  %57 = icmp ugt i32 %15, 40
  %58 = select i1 %57, i64 7, i64 0
  %59 = select i1 %54, i64 %56, i64 %58
  br label %60

60:                                               ; preds = %61, %_ZL16StoreBlockSwitchP14BlockSplitCodejhiPmPh.exit
  %indvars.iv = phi i64 [ %indvars.iv.next, %61 ], [ %59, %_ZL16StoreBlockSwitchP14BlockSplitCodejhiPmPh.exit ]
  %exitcond.not = icmp eq i64 %indvars.iv, 25
  br i1 %exitcond.not, label %_ZL24GetBlockLengthPrefixCodejPmPjS0_.exit, label %61

61:                                               ; preds = %60
  %indvars.iv.next = add nuw nsw i64 %indvars.iv, 1
  %62 = getelementptr inbounds nuw [26 x %"struct.duckdb_brotli::BrotliPrefixCodeRange"], ptr @_ZN13duckdb_brotli24_kBrotliPrefixCodeRangesE, i64 0, i64 %indvars.iv.next
  %63 = load i16, ptr %62, align 4, !tbaa !247
  %64 = zext i16 %63 to i32
  %.not.i.i = icmp ult i32 %15, %64
  br i1 %.not.i.i, label %_ZL24GetBlockLengthPrefixCodejPmPjS0_.exit, label %60, !llvm.loop !249

_ZL24GetBlockLengthPrefixCodejPmPjS0_.exit:       ; preds = %60, %61
  %65 = and i64 %indvars.iv, 4294967295
  %66 = getelementptr inbounds nuw [26 x %"struct.duckdb_brotli::BrotliPrefixCodeRange"], ptr @_ZN13duckdb_brotli24_kBrotliPrefixCodeRangesE, i64 0, i64 %65, i32 1
  %67 = load i8, ptr %66, align 2, !tbaa !250
  %68 = getelementptr inbounds nuw [26 x %"struct.duckdb_brotli::BrotliPrefixCodeRange"], ptr @_ZN13duckdb_brotli24_kBrotliPrefixCodeRangesE, i64 0, i64 %65
  %69 = load i16, ptr %68, align 4, !tbaa !247
  %70 = zext i16 %69 to i32
  %71 = sub i32 %15, %70
  %72 = getelementptr inbounds nuw i8, ptr %0, i64 830
  %73 = getelementptr inbounds nuw [26 x i8], ptr %72, i64 0, i64 %65
  %74 = load i8, ptr %73, align 1, !tbaa !7
  %75 = zext i8 %74 to i64
  %76 = getelementptr inbounds nuw i8, ptr %0, i64 856
  %77 = getelementptr inbounds nuw [26 x i16], ptr %76, i64 0, i64 %65
  %78 = load i16, ptr %77, align 2, !tbaa !30
  %79 = zext i16 %78 to i64
  tail call void @llvm.experimental.noalias.scope.decl(metadata !502)
  tail call void @llvm.experimental.noalias.scope.decl(metadata !505)
  %80 = lshr i64 %53, 3
  %81 = getelementptr inbounds nuw i8, ptr %3, i64 %80
  %82 = load i8, ptr %81, align 1, !tbaa !7, !alias.scope !505, !noalias !502
  %83 = zext i8 %82 to i64
  %84 = and i64 %53, 7
  %85 = shl nuw nsw i64 %79, %84
  %86 = or i64 %85, %83
  store i64 %86, ptr %81, align 1, !noalias !502
  %87 = add i64 %53, %75
  store i64 %87, ptr %2, align 8, !tbaa !3, !alias.scope !502, !noalias !505
  %88 = zext i8 %67 to i64
  %89 = zext i32 %71 to i64
  tail call void @llvm.experimental.noalias.scope.decl(metadata !507)
  tail call void @llvm.experimental.noalias.scope.decl(metadata !510)
  %90 = lshr i64 %87, 3
  %91 = getelementptr inbounds nuw i8, ptr %3, i64 %90
  %92 = load i8, ptr %91, align 1, !tbaa !7, !alias.scope !510, !noalias !507
  %93 = zext i8 %92 to i64
  %94 = and i64 %87, 7
  %95 = shl nuw nsw i64 %89, %94
  %96 = or i64 %95, %93
  store i64 %96, ptr %91, align 1, !noalias !507
  %97 = add i64 %87, %88
  store i64 %97, ptr %2, align 8, !tbaa !3, !alias.scope !507, !noalias !510
  %.pre = load i64, ptr %5, align 8, !tbaa !194
  br label %98

98:                                               ; preds = %_ZL24GetBlockLengthPrefixCodejPmPjS0_.exit, %4
  %99 = phi i64 [ %.pre, %_ZL24GetBlockLengthPrefixCodejPmPjS0_.exit ], [ %6, %4 ]
  %100 = add i64 %99, -1
  store i64 %100, ptr %5, align 8, !tbaa !194
  %101 = getelementptr inbounds nuw i8, ptr %0, i64 928
  %102 = load i64, ptr %101, align 8, !tbaa !241
  %103 = add i64 %102, %1
  %104 = getelementptr inbounds nuw i8, ptr %0, i64 936
  %105 = load ptr, ptr %104, align 8, !tbaa !228
  %106 = getelementptr inbounds nuw i8, ptr %105, i64 %103
  %107 = load i8, ptr %106, align 1, !tbaa !7
  %108 = zext i8 %107 to i64
  %109 = getelementptr inbounds nuw i8, ptr %0, i64 944
  %110 = load ptr, ptr %109, align 8, !tbaa !229
  %111 = getelementptr inbounds nuw i16, ptr %110, i64 %103
  %112 = load i16, ptr %111, align 2, !tbaa !30
  %113 = zext i16 %112 to i64
  tail call void @llvm.experimental.noalias.scope.decl(metadata !512)
  tail call void @llvm.experimental.noalias.scope.decl(metadata !515)
  %114 = load i64, ptr %2, align 8, !tbaa !3, !alias.scope !512, !noalias !515
  %115 = lshr i64 %114, 3
  %116 = getelementptr inbounds nuw i8, ptr %3, i64 %115
  %117 = load i8, ptr %116, align 1, !tbaa !7, !alias.scope !515, !noalias !512
  %118 = zext i8 %117 to i64
  %119 = and i64 %114, 7
  %120 = shl nuw nsw i64 %113, %119
  %121 = or i64 %120, %118
  store i64 %121, ptr %116, align 1, !noalias !512
  %122 = add i64 %114, %108
  store i64 %122, ptr %2, align 8, !tbaa !3, !alias.scope !512, !noalias !515
  ret void
}